; ModuleID = '9/1008.c'
source_filename = "9/1008.c"
target datalayout = "e-m:e-p270:32:32-p271:32:32-p272:64:64-i64:64-f80:128-n8:16:32:64-S128"
target triple = "x86_64-pc-linux-gnu"

%struct.student = type { [10 x i8], i32, %struct.student* }

@.str = private unnamed_addr constant [6 x i8] c"%s %d\00", align 1
@.str.1 = private unnamed_addr constant [3 x i8] c"%d\00", align 1
@.str.2 = private unnamed_addr constant [4 x i8] c"%s\0A\00", align 1

; Function Attrs: noinline nounwind uwtable
define dso_local %struct.student* @creat(i32 %0) #0 {
  %2 = alloca i32, align 4
  %3 = alloca i32, align 4
  %4 = alloca %struct.student*, align 8
  %5 = alloca %struct.student*, align 8
  %6 = alloca %struct.student*, align 8
  store i32 %0, i32* %2, align 4
  store i32 0, i32* %3, align 4
  %7 = call noalias i8* @malloc(i64 100) #3
  %8 = bitcast i8* %7 to %struct.student*
  store %struct.student* %8, %struct.student** %6, align 8
  store %struct.student* %8, %struct.student** %5, align 8
  %9 = load %struct.student*, %struct.student** %5, align 8
  %10 = getelementptr inbounds %struct.student, %struct.student* %9, i32 0, i32 0
  %11 = load %struct.student*, %struct.student** %5, align 8
  %12 = getelementptr inbounds %struct.student, %struct.student* %11, i32 0, i32 1
  %13 = call i32 (i8*, ...) @__isoc99_scanf(i8* getelementptr inbounds ([6 x i8], [6 x i8]* @.str, i64 0, i64 0), [10 x i8]* %10, i32* %12)
  store %struct.student* null, %struct.student** %4, align 8
  br label %14

14:                                               ; preds = %30, %1
  %15 = load i32, i32* %3, align 4
  %16 = load i32, i32* %2, align 4
  %17 = sub nsw i32 %16, 1
  %18 = icmp slt i32 %15, %17
  br i1 %18, label %19, label %39

19:                                               ; preds = %14
  %20 = load i32, i32* %3, align 4
  %21 = add nsw i32 %20, 1
  store i32 %21, i32* %3, align 4
  %22 = load i32, i32* %3, align 4
  %23 = icmp eq i32 %22, 1
  br i1 %23, label %24, label %26

24:                                               ; preds = %19
  %25 = load %struct.student*, %struct.student** %5, align 8
  store %struct.student* %25, %struct.student** %4, align 8
  br label %30

26:                                               ; preds = %19
  %27 = load %struct.student*, %struct.student** %5, align 8
  %28 = load %struct.student*, %struct.student** %6, align 8
  %29 = getelementptr inbounds %struct.student, %struct.student* %28, i32 0, i32 2
  store %struct.student* %27, %struct.student** %29, align 8
  br label %30

30:                                               ; preds = %26, %24
  %31 = load %struct.student*, %struct.student** %5, align 8
  store %struct.student* %31, %struct.student** %6, align 8
  %32 = call noalias i8* @malloc(i64 100) #3
  %33 = bitcast i8* %32 to %struct.student*
  store %struct.student* %33, %struct.student** %5, align 8
  %34 = load %struct.student*, %struct.student** %5, align 8
  %35 = getelementptr inbounds %struct.student, %struct.student* %34, i32 0, i32 0
  %36 = load %struct.student*, %struct.student** %5, align 8
  %37 = getelementptr inbounds %struct.student, %struct.student* %36, i32 0, i32 1
  %38 = call i32 (i8*, ...) @__isoc99_scanf(i8* getelementptr inbounds ([6 x i8], [6 x i8]* @.str, i64 0, i64 0), [10 x i8]* %35, i32* %37)
  br label %14

39:                                               ; preds = %14
  %40 = load %struct.student*, %struct.student** %5, align 8
  %41 = load %struct.student*, %struct.student** %6, align 8
  %42 = getelementptr inbounds %struct.student, %struct.student* %41, i32 0, i32 2
  store %struct.student* %40, %struct.student** %42, align 8
  %43 = call noalias i8* @malloc(i64 100) #3
  %44 = bitcast i8* %43 to %struct.student*
  store %struct.student* %44, %struct.student** %6, align 8
  %45 = load %struct.student*, %struct.student** %5, align 8
  store %struct.student* %45, %struct.student** %6, align 8
  %46 = load %struct.student*, %struct.student** %6, align 8
  %47 = getelementptr inbounds %struct.student, %struct.student* %46, i32 0, i32 2
  store %struct.student* null, %struct.student** %47, align 8
  %48 = load %struct.student*, %struct.student** %4, align 8
  ret %struct.student* %48
}

; Function Attrs: nounwind
declare dso_local noalias i8* @malloc(i64) #1

declare dso_local i32 @__isoc99_scanf(i8*, ...) #2

; Function Attrs: noinline nounwind uwtable
define dso_local void @main() #0 {
  %1 = alloca i32, align 4
  %2 = alloca i32, align 4
  %3 = alloca i32, align 4
  %4 = alloca %struct.student*, align 8
  %5 = alloca %struct.student*, align 8
  %6 = alloca %struct.student*, align 8
  %7 = alloca %struct.student*, align 8
  %8 = alloca %struct.student*, align 8
  %9 = alloca %struct.student*, align 8
  %10 = alloca %struct.student*, align 8
  %11 = alloca [10 x i8], align 1
  %12 = alloca i32, align 4
  %13 = call i32 (i8*, ...) @__isoc99_scanf(i8* getelementptr inbounds ([3 x i8], [3 x i8]* @.str.1, i64 0, i64 0), i32* %1)
  %14 = load i32, i32* %1, align 4
  %15 = call %struct.student* @creat(i32 %14)
  store %struct.student* %15, %struct.student** %4, align 8
  store i32 0, i32* %2, align 4
  br label %16

16:                                               ; preds = %85, %0
  %17 = load i32, i32* %2, align 4
  %18 = load i32, i32* %1, align 4
  %19 = icmp slt i32 %17, %18
  br i1 %19, label %20, label %88

20:                                               ; preds = %16
  %21 = load %struct.student*, %struct.student** %4, align 8
  store %struct.student* %21, %struct.student** %5, align 8
  %22 = load %struct.student*, %struct.student** %5, align 8
  %23 = getelementptr inbounds %struct.student, %struct.student* %22, i32 0, i32 2
  %24 = load %struct.student*, %struct.student** %23, align 8
  store %struct.student* %24, %struct.student** %6, align 8
  store i32 0, i32* %3, align 4
  br label %25

25:                                               ; preds = %81, %20
  %26 = load i32, i32* %3, align 4
  %27 = load i32, i32* %1, align 4
  %28 = sub nsw i32 %27, 1
  %29 = load i32, i32* %2, align 4
  %30 = sub nsw i32 %28, %29
  %31 = icmp slt i32 %26, %30
  br i1 %31, label %32, label %84

32:                                               ; preds = %25
  %33 = load %struct.student*, %struct.student** %6, align 8
  %34 = getelementptr inbounds %struct.student, %struct.student* %33, i32 0, i32 1
  %35 = load i32, i32* %34, align 4
  %36 = icmp sgt i32 %35, 59
  br i1 %36, label %37, label %74

37:                                               ; preds = %32
  %38 = load %struct.student*, %struct.student** %6, align 8
  %39 = getelementptr inbounds %struct.student, %struct.student* %38, i32 0, i32 1
  %40 = load i32, i32* %39, align 4
  %41 = load %struct.student*, %struct.student** %5, align 8
  %42 = getelementptr inbounds %struct.student, %struct.student* %41, i32 0, i32 1
  %43 = load i32, i32* %42, align 4
  %44 = icmp sgt i32 %40, %43
  br i1 %44, label %45, label %74

45:                                               ; preds = %37
  %46 = getelementptr inbounds [10 x i8], [10 x i8]* %11, i64 0, i64 0
  %47 = load %struct.student*, %struct.student** %6, align 8
  %48 = getelementptr inbounds %struct.student, %struct.student* %47, i32 0, i32 0
  %49 = getelementptr inbounds [10 x i8], [10 x i8]* %48, i64 0, i64 0
  %50 = call i8* @strcpy(i8* %46, i8* %49) #3
  %51 = load %struct.student*, %struct.student** %6, align 8
  %52 = getelementptr inbounds %struct.student, %struct.student* %51, i32 0, i32 0
  %53 = getelementptr inbounds [10 x i8], [10 x i8]* %52, i64 0, i64 0
  %54 = load %struct.student*, %struct.student** %5, align 8
  %55 = getelementptr inbounds %struct.student, %struct.student* %54, i32 0, i32 0
  %56 = getelementptr inbounds [10 x i8], [10 x i8]* %55, i64 0, i64 0
  %57 = call i8* @strcpy(i8* %53, i8* %56) #3
  %58 = load %struct.student*, %struct.student** %5, align 8
  %59 = getelementptr inbounds %struct.student, %struct.student* %58, i32 0, i32 0
  %60 = getelementptr inbounds [10 x i8], [10 x i8]* %59, i64 0, i64 0
  %61 = getelementptr inbounds [10 x i8], [10 x i8]* %11, i64 0, i64 0
  %62 = call i8* @strcpy(i8* %60, i8* %61) #3
  %63 = load %struct.student*, %struct.student** %5, align 8
  %64 = getelementptr inbounds %struct.student, %struct.student* %63, i32 0, i32 1
  %65 = load i32, i32* %64, align 4
  store i32 %65, i32* %12, align 4
  %66 = load %struct.student*, %struct.student** %6, align 8
  %67 = getelementptr inbounds %struct.student, %struct.student* %66, i32 0, i32 1
  %68 = load i32, i32* %67, align 4
  %69 = load %struct.student*, %struct.student** %5, align 8
  %70 = getelementptr inbounds %struct.student, %struct.student* %69, i32 0, i32 1
  store i32 %68, i32* %70, align 4
  %71 = load i32, i32* %12, align 4
  %72 = load %struct.student*, %struct.student** %6, align 8
  %73 = getelementptr inbounds %struct.student, %struct.student* %72, i32 0, i32 1
  store i32 %71, i32* %73, align 4
  br label %74

74:                                               ; preds = %45, %37, %32
  %75 = load %struct.student*, %struct.student** %5, align 8
  %76 = getelementptr inbounds %struct.student, %struct.student* %75, i32 0, i32 2
  %77 = load %struct.student*, %struct.student** %76, align 8
  store %struct.student* %77, %struct.student** %5, align 8
  %78 = load %struct.student*, %struct.student** %6, align 8
  %79 = getelementptr inbounds %struct.student, %struct.student* %78, i32 0, i32 2
  %80 = load %struct.student*, %struct.student** %79, align 8
  store %struct.student* %80, %struct.student** %6, align 8
  br label %81

81:                                               ; preds = %74
  %82 = load i32, i32* %3, align 4
  %83 = add nsw i32 %82, 1
  store i32 %83, i32* %3, align 4
  br label %25

84:                                               ; preds = %25
  br label %85

85:                                               ; preds = %84
  %86 = load i32, i32* %2, align 4
  %87 = add nsw i32 %86, 1
  store i32 %87, i32* %2, align 4
  br label %16

88:                                               ; preds = %16
  %89 = load %struct.student*, %struct.student** %4, align 8
  store %struct.student* %89, %struct.student** %9, align 8
  store i32 0, i32* %2, align 4
  br label %90

90:                                               ; preds = %102, %88
  %91 = load i32, i32* %2, align 4
  %92 = load i32, i32* %1, align 4
  %93 = icmp slt i32 %91, %92
  br i1 %93, label %94, label %105

94:                                               ; preds = %90
  %95 = load %struct.student*, %struct.student** %9, align 8
  %96 = getelementptr inbounds %struct.student, %struct.student* %95, i32 0, i32 0
  %97 = getelementptr inbounds [10 x i8], [10 x i8]* %96, i64 0, i64 0
  %98 = call i32 (i8*, ...) @printf(i8* getelementptr inbounds ([4 x i8], [4 x i8]* @.str.2, i64 0, i64 0), i8* %97)
  %99 = load %struct.student*, %struct.student** %9, align 8
  %100 = getelementptr inbounds %struct.student, %struct.student* %99, i32 0, i32 2
  %101 = load %struct.student*, %struct.student** %100, align 8
  store %struct.student* %101, %struct.student** %9, align 8
  br label %102

102:                                              ; preds = %94
  %103 = load i32, i32* %2, align 4
  %104 = add nsw i32 %103, 1
  store i32 %104, i32* %2, align 4
  br label %90

105:                                              ; preds = %90
  ret void
}

; Function Attrs: nounwind
declare dso_local i8* @strcpy(i8*, i8*) #1

declare dso_local i32 @printf(i8*, ...) #2


!llvm.module.flags = !{!0}
!llvm.ident = !{!1}

!0 = !{i32 1, !"wchar_size", i32 4}
!1 = !{!"clang version 10.0.0-4ubuntu1 "}
